; ModuleID = '32/1935.c'
source_filename = "32/1935.c"
target datalayout = "e-m:e-p270:32:32-p271:32:32-p272:64:64-i64:64-f80:128-n8:16:32:64-S128"
target triple = "x86_64-pc-linux-gnu"

@.str = private unnamed_addr constant [4 x i8] c"%d\0A\00", align 1

; Function Attrs: noinline nounwind uwtable
define dso_local void @main() #0 {
  %1 = alloca i32, align 4
  %2 = alloca i32, align 4
  %3 = alloca i32, align 4
  %4 = alloca i32, align 4
  %5 = alloca i32, align 4
  %6 = alloca [100 x i8], align 16
  %7 = alloca [100 x i8], align 16
  %8 = alloca [30 x [100 x i8]], align 16
  %9 = call i32 (i8*, ...) @__isoc99_scanf(i8* getelementptr inbounds ([4 x i8], [4 x i8]* @.str, i64 0, i64 0), i32* %1)
  store i32 0, i32* %2, align 4
  br label %10

10:                                               ; preds = %112, %0
  %11 = load i32, i32* %2, align 4
  %12 = load i32, i32* %1, align 4
  %13 = sub nsw i32 %12, 1
  %14 = icmp sle i32 %11, %13
  br i1 %14, label %15, label %115

15:                                               ; preds = %10
  %16 = getelementptr inbounds [100 x i8], [100 x i8]* %6, i64 0, i64 0
  %17 = call i32 (i8*, ...) bitcast (i32 (...)* @gets to i32 (i8*, ...)*)(i8* %16)
  %18 = getelementptr inbounds [100 x i8], [100 x i8]* %7, i64 0, i64 0
  %19 = call i32 (i8*, ...) bitcast (i32 (...)* @gets to i32 (i8*, ...)*)(i8* %18)
  %20 = call i32 @getchar()
  %21 = getelementptr inbounds [100 x i8], [100 x i8]* %6, i64 0, i64 0
  %22 = call i64 @strlen(i8* %21) #4
  %23 = trunc i64 %22 to i32
  store i32 %23, i32* %4, align 4
  %24 = getelementptr inbounds [100 x i8], [100 x i8]* %7, i64 0, i64 0
  %25 = call i64 @strlen(i8* %24) #4
  %26 = trunc i64 %25 to i32
  store i32 %26, i32* %5, align 4
  %27 = load i32, i32* %5, align 4
  %28 = sub nsw i32 %27, 1
  store i32 %28, i32* %3, align 4
  br label %29

29:                                               ; preds = %102, %15
  %30 = load i32, i32* %3, align 4
  %31 = icmp sge i32 %30, 0
  br i1 %31, label %32, label %105

32:                                               ; preds = %29
  %33 = load i32, i32* %4, align 4
  %34 = load i32, i32* %5, align 4
  %35 = sub nsw i32 %33, %34
  %36 = load i32, i32* %3, align 4
  %37 = add nsw i32 %35, %36
  %38 = sext i32 %37 to i64
  %39 = getelementptr inbounds [100 x i8], [100 x i8]* %6, i64 0, i64 %38
  %40 = load i8, i8* %39, align 1
  %41 = sext i8 %40 to i32
  %42 = load i32, i32* %3, align 4
  %43 = sext i32 %42 to i64
  %44 = getelementptr inbounds [100 x i8], [100 x i8]* %7, i64 0, i64 %43
  %45 = load i8, i8* %44, align 1
  %46 = sext i8 %45 to i32
  %47 = sub nsw i32 %41, %46
  %48 = trunc i32 %47 to i8
  %49 = load i32, i32* %4, align 4
  %50 = load i32, i32* %5, align 4
  %51 = sub nsw i32 %49, %50
  %52 = load i32, i32* %3, align 4
  %53 = add nsw i32 %51, %52
  %54 = sext i32 %53 to i64
  %55 = getelementptr inbounds [100 x i8], [100 x i8]* %6, i64 0, i64 %54
  store i8 %48, i8* %55, align 1
  %56 = load i32, i32* %4, align 4
  %57 = load i32, i32* %5, align 4
  %58 = sub nsw i32 %56, %57
  %59 = load i32, i32* %3, align 4
  %60 = add nsw i32 %58, %59
  %61 = sext i32 %60 to i64
  %62 = getelementptr inbounds [100 x i8], [100 x i8]* %6, i64 0, i64 %61
  %63 = load i8, i8* %62, align 1
  %64 = sext i8 %63 to i32
  %65 = icmp slt i32 %64, 0
  br i1 %65, label %66, label %90

66:                                               ; preds = %32
  %67 = load i32, i32* %4, align 4
  %68 = load i32, i32* %5, align 4
  %69 = sub nsw i32 %67, %68
  %70 = load i32, i32* %3, align 4
  %71 = add nsw i32 %69, %70
  %72 = sext i32 %71 to i64
  %73 = getelementptr inbounds [100 x i8], [100 x i8]* %6, i64 0, i64 %72
  %74 = load i8, i8* %73, align 1
  %75 = sext i8 %74 to i32
  %76 = add nsw i32 %75, 10
  %77 = trunc i32 %76 to i8
  store i8 %77, i8* %73, align 1
  %78 = load i32, i32* %4, align 4
  %79 = load i32, i32* %5, align 4
  %80 = sub nsw i32 %78, %79
  %81 = load i32, i32* %3, align 4
  %82 = add nsw i32 %80, %81
  %83 = sub nsw i32 %82, 1
  %84 = sext i32 %83 to i64
  %85 = getelementptr inbounds [100 x i8], [100 x i8]* %6, i64 0, i64 %84
  %86 = load i8, i8* %85, align 1
  %87 = sext i8 %86 to i32
  %88 = sub nsw i32 %87, 1
  %89 = trunc i32 %88 to i8
  store i8 %89, i8* %85, align 1
  br label %90

90:                                               ; preds = %66, %32
  %91 = load i32, i32* %4, align 4
  %92 = load i32, i32* %5, align 4
  %93 = sub nsw i32 %91, %92
  %94 = load i32, i32* %3, align 4
  %95 = add nsw i32 %93, %94
  %96 = sext i32 %95 to i64
  %97 = getelementptr inbounds [100 x i8], [100 x i8]* %6, i64 0, i64 %96
  %98 = load i8, i8* %97, align 1
  %99 = sext i8 %98 to i32
  %100 = add nsw i32 %99, 48
  %101 = trunc i32 %100 to i8
  store i8 %101, i8* %97, align 1
  br label %102

102:                                              ; preds = %90
  %103 = load i32, i32* %3, align 4
  %104 = add nsw i32 %103, -1
  store i32 %104, i32* %3, align 4
  br label %29

105:                                              ; preds = %29
  %106 = load i32, i32* %2, align 4
  %107 = sext i32 %106 to i64
  %108 = getelementptr inbounds [30 x [100 x i8]], [30 x [100 x i8]]* %8, i64 0, i64 %107
  %109 = getelementptr inbounds [100 x i8], [100 x i8]* %108, i64 0, i64 0
  %110 = getelementptr inbounds [100 x i8], [100 x i8]* %6, i64 0, i64 0
  %111 = call i8* @strcpy(i8* %109, i8* %110) #5
  br label %112

112:                                              ; preds = %105
  %113 = load i32, i32* %2, align 4
  %114 = add nsw i32 %113, 1
  store i32 %114, i32* %2, align 4
  br label %10

115:                                              ; preds = %10
  store i32 0, i32* %2, align 4
  br label %116

116:                                              ; preds = %127, %115
  %117 = load i32, i32* %2, align 4
  %118 = load i32, i32* %1, align 4
  %119 = sub nsw i32 %118, 1
  %120 = icmp sle i32 %117, %119
  br i1 %120, label %121, label %130

121:                                              ; preds = %116
  %122 = load i32, i32* %2, align 4
  %123 = sext i32 %122 to i64
  %124 = getelementptr inbounds [30 x [100 x i8]], [30 x [100 x i8]]* %8, i64 0, i64 %123
  %125 = getelementptr inbounds [100 x i8], [100 x i8]* %124, i64 0, i64 0
  %126 = call i32 @puts(i8* %125)
  br label %127

127:                                              ; preds = %121
  %128 = load i32, i32* %2, align 4
  %129 = add nsw i32 %128, 1
  store i32 %129, i32* %2, align 4
  br label %116

130:                                              ; preds = %116
  ret void
}

declare dso_local i32 @__isoc99_scanf(i8*, ...) #1

declare dso_local i32 @gets(...) #1

declare dso_local i32 @getchar() #1

; Function Attrs: nounwind readonly
declare dso_local i64 @strlen(i8*) #2

; Function Attrs: nounwind
declare dso_local i8* @strcpy(i8*, i8*) #3

declare dso_local i32 @puts(i8*) #1


!llvm.module.flags = !{!0}
!llvm.ident = !{!1}

!0 = !{i32 1, !"wchar_size", i32 4}
!1 = !{!"clang version 10.0.0-4ubuntu1 "}
