; ModuleID = 'source-C-CXX/31/1935.c'
source_filename = "source-C-CXX/31/1935.c"
target datalayout = "e-m:e-p270:32:32-p271:32:32-p272:64:64-i64:64-f80:128-n8:16:32:64-S128"
target triple = "x86_64-pc-linux-gnu"

%struct._IO_FILE = type { i32, i8*, i8*, i8*, i8*, i8*, i8*, i8*, i8*, i8*, i8*, i8*, %struct._IO_marker*, %struct._IO_FILE*, i32, i32, i64, i16, i8, [1 x i8], i8*, i64, %struct._IO_codecvt*, %struct._IO_wide_data*, %struct._IO_FILE*, i8*, i64, i32, [20 x i8] }
%struct._IO_marker = type opaque
%struct._IO_codecvt = type opaque
%struct._IO_wide_data = type opaque

@.str = private unnamed_addr constant [4 x i8] c"%d\0A\00", align 1
@stdin = external local_unnamed_addr global %struct._IO_FILE*, align 8

; Function Attrs: nounwind sspstrong uwtable
define dso_local void @main() local_unnamed_addr #0 {
  %1 = alloca i32, align 4
  %2 = alloca [100 x i8], align 16
  %3 = alloca [100 x i8], align 16
  %4 = alloca [30 x [100 x i8]], align 16
  %5 = bitcast i32* %1 to i8*
  call void @llvm.lifetime.start.p0i8(i64 4, i8* nonnull %5) #6
  %6 = getelementptr inbounds [100 x i8], [100 x i8]* %2, i64 0, i64 0
  call void @llvm.lifetime.start.p0i8(i64 100, i8* nonnull %6) #6
  %7 = getelementptr inbounds [100 x i8], [100 x i8]* %3, i64 0, i64 0
  call void @llvm.lifetime.start.p0i8(i64 100, i8* nonnull %7) #6
  %8 = getelementptr inbounds [30 x [100 x i8]], [30 x [100 x i8]]* %4, i64 0, i64 0, i64 0
  call void @llvm.lifetime.start.p0i8(i64 3000, i8* nonnull %8) #6
  %9 = call i32 (i8*, ...) @__isoc99_scanf(i8* getelementptr inbounds ([4 x i8], [4 x i8]* @.str, i64 0, i64 0), i32* nonnull %1)
  %10 = load i32, i32* %1, align 4, !tbaa !5
  %11 = icmp sgt i32 %10, 0
  br i1 %11, label %14, label %68

12:                                               ; preds = %53
  %13 = icmp sgt i32 %57, 0
  br i1 %13, label %60, label %68

14:                                               ; preds = %0, %53
  %15 = phi i64 [ %56, %53 ], [ 0, %0 ]
  %16 = call i32 (i8*, ...) bitcast (i32 (...)* @gets to i32 (i8*, ...)*)(i8* nonnull %6) #6
  %17 = call i32 (i8*, ...) bitcast (i32 (...)* @gets to i32 (i8*, ...)*)(i8* nonnull %7) #6
  %18 = load %struct._IO_FILE*, %struct._IO_FILE** @stdin, align 8, !tbaa !9
  %19 = call i32 @getc(%struct._IO_FILE* %18) #6
  %20 = call i64 @strlen(i8* noundef nonnull %6) #7
  %21 = trunc i64 %20 to i32
  %22 = call i64 @strlen(i8* noundef nonnull %7) #7
  %23 = trunc i64 %22 to i32
  %24 = sub nsw i32 %21, %23
  %25 = icmp sgt i32 %23, 0
  br i1 %25, label %26, label %53

26:                                               ; preds = %14
  %27 = shl i64 %22, 32
  %28 = ashr exact i64 %27, 32
  br label %29

29:                                               ; preds = %26, %49
  %30 = phi i64 [ %28, %26 ], [ %32, %49 ]
  %31 = phi i32 [ %23, %26 ], [ %33, %49 ]
  %32 = add nsw i64 %30, -1
  %33 = add nsw i32 %31, -1
  %34 = add nsw i32 %33, %24
  %35 = sext i32 %34 to i64
  %36 = getelementptr inbounds [100 x i8], [100 x i8]* %2, i64 0, i64 %35
  %37 = load i8, i8* %36, align 1, !tbaa !11
  %38 = getelementptr inbounds [100 x i8], [100 x i8]* %3, i64 0, i64 %32
  %39 = load i8, i8* %38, align 1, !tbaa !11
  %40 = sub i8 %37, %39
  %41 = icmp slt i8 %40, 0
  br i1 %41, label %42, label %49

42:                                               ; preds = %29
  %43 = add nsw i8 %40, 10
  %44 = add nsw i32 %34, -1
  %45 = sext i32 %44 to i64
  %46 = getelementptr inbounds [100 x i8], [100 x i8]* %2, i64 0, i64 %45
  %47 = load i8, i8* %46, align 1, !tbaa !11
  %48 = add i8 %47, -1
  store i8 %48, i8* %46, align 1, !tbaa !11
  br label %49

49:                                               ; preds = %42, %29
  %50 = phi i8 [ %43, %42 ], [ %40, %29 ]
  %51 = add i8 %50, 48
  store i8 %51, i8* %36, align 1, !tbaa !11
  %52 = icmp sgt i64 %30, 1
  br i1 %52, label %29, label %53, !llvm.loop !12

53:                                               ; preds = %49, %14
  %54 = getelementptr inbounds [30 x [100 x i8]], [30 x [100 x i8]]* %4, i64 0, i64 %15, i64 0
  %55 = call i8* @strcpy(i8* noundef nonnull %54, i8* noundef nonnull %6) #6
  %56 = add nuw nsw i64 %15, 1
  %57 = load i32, i32* %1, align 4, !tbaa !5
  %58 = sext i32 %57 to i64
  %59 = icmp slt i64 %56, %58
  br i1 %59, label %14, label %12, !llvm.loop !14

60:                                               ; preds = %12, %60
  %61 = phi i64 [ %64, %60 ], [ 0, %12 ]
  %62 = getelementptr inbounds [30 x [100 x i8]], [30 x [100 x i8]]* %4, i64 0, i64 %61, i64 0
  %63 = call i32 @puts(i8* nonnull %62)
  %64 = add nuw nsw i64 %61, 1
  %65 = load i32, i32* %1, align 4, !tbaa !5
  %66 = sext i32 %65 to i64
  %67 = icmp slt i64 %64, %66
  br i1 %67, label %60, label %68, !llvm.loop !15

68:                                               ; preds = %60, %0, %12
  call void @llvm.lifetime.end.p0i8(i64 3000, i8* nonnull %8) #6
  call void @llvm.lifetime.end.p0i8(i64 100, i8* nonnull %7) #6
  call void @llvm.lifetime.end.p0i8(i64 100, i8* nonnull %6) #6
  call void @llvm.lifetime.end.p0i8(i64 4, i8* nonnull %5) #6
  ret void
}

; Function Attrs: argmemonly mustprogress nofree nosync nounwind willreturn
declare void @llvm.lifetime.start.p0i8(i64 immarg, i8* nocapture) #1

; Function Attrs: nofree nounwind
declare noundef i32 @__isoc99_scanf(i8* nocapture noundef readonly, ...) local_unnamed_addr #2

declare i32 @gets(...) local_unnamed_addr #3

; Function Attrs: argmemonly mustprogress nofree nounwind readonly willreturn
declare i64 @strlen(i8* nocapture) local_unnamed_addr #4

; Function Attrs: argmemonly mustprogress nofree nounwind willreturn
declare i8* @strcpy(i8* noalias returned writeonly, i8* noalias nocapture readonly) local_unnamed_addr #5

; Function Attrs: nofree nounwind
declare noundef i32 @puts(i8* nocapture noundef readonly) local_unnamed_addr #2

; Function Attrs: argmemonly mustprogress nofree nosync nounwind willreturn
declare void @llvm.lifetime.end.p0i8(i64 immarg, i8* nocapture) #1

; Function Attrs: nofree nounwind
declare noundef i32 @getc(%struct._IO_FILE* nocapture noundef) local_unnamed_addr #2


!llvm.module.flags = !{!0, !1, !2, !3}
!llvm.ident = !{!4}

!0 = !{i32 1, !"wchar_size", i32 4}
!1 = !{i32 7, !"PIC Level", i32 2}
!2 = !{i32 7, !"PIE Level", i32 2}
!3 = !{i32 7, !"uwtable", i32 1}
!4 = !{!"clang version 13.0.0"}
!5 = !{!6, !6, i64 0}
!6 = !{!"int", !7, i64 0}
!7 = !{!"omnipotent char", !8, i64 0}
!8 = !{!"Simple C/C++ TBAA"}
!9 = !{!10, !10, i64 0}
!10 = !{!"any pointer", !7, i64 0}
!11 = !{!7, !7, i64 0}
!12 = distinct !{!12, !13}
!13 = !{!"llvm.loop.mustprogress"}
!14 = distinct !{!14, !13}
!15 = distinct !{!15, !13}
